target datalayout = "e-m:e-p270:32:32-p271:32:32-p272:64:64-i64:64-i128:128-f80:128-n8:16:32:64-S128"
target triple = "x86_64-pc-linux-gnu"

%"class.doctest::String" = type { %union.anon }
%union.anon = type { %"struct.doctest::String::view", [8 x i8] }
%"struct.doctest::String::view" = type { ptr, i32, i32 }
%"struct.doctest::detail::ResultBuilder" = type { %"struct.doctest::AssertData" }
%"struct.doctest::AssertData" = type { ptr, i32, ptr, i32, ptr, i8, i8, %"class.doctest::String", %"class.doctest::String", i8, ptr, %"class.doctest::AssertData::StringContains" }
%"class.doctest::AssertData::StringContains" = type <{ %"class.doctest::Contains", i8, [7 x i8] }>
%"class.doctest::Contains" = type { %"class.doctest::String" }
%"class.std::__cxx11::basic_string" = type { %"struct.std::__cxx11::basic_string<char>::_Alloc_hider", i64, %union.anon.0 }
%"struct.std::__cxx11::basic_string<char>::_Alloc_hider" = type { ptr }
%union.anon.0 = type { i64, [8 x i8] }
%"struct.doctest::detail::Result" = type { i8, %"class.doctest::String" }
%"struct.doctest::detail::Expression_lhs" = type <{ ptr, i32, [4 x i8] }>
%"struct.doctest::detail::ExpressionDecomposer" = type { i32 }

@.str = private unnamed_addr constant [1 x i8] zeroinitializer, align 1
@.str.56 = private unnamed_addr constant [113 x i8] c"generated/home/dtcxzyw/WorkSpace/Projects/compilers/llvm-opt-benchmark/bench/luau/luau/tests/IrLowering.test.cpp\00", align 1
@.str.264 = private unnamed_addr constant [15 x i8] c"bb_bytecode_0:\00", align 1
@.str.265 = private unnamed_addr constant [6 x i8] c"bb_0:\00", align 1
@.str.266 = private unnamed_addr constant [35 x i8] c"bytecodeStart != std::string::npos\00", align 1
@_ZNSt7__cxx1112basic_stringIcSt11char_traitsIcESaIcEE4nposE = external constant i64, align 8

; Function Attrs: mustprogress nounwind uwtable
define linkonce_odr dso_local void @_ZN7doctest6detail14Expression_lhsIRmEC2ES2_NS_10assertType4EnumE(ptr noundef nonnull align 8 dereferenceable(12) %0, ptr noundef nonnull align 8 dereferenceable(8) %1, i32 noundef %2) unnamed_addr #1 comdat align 2 {
  %4 = alloca ptr, align 8
  %5 = alloca ptr, align 8
  %6 = alloca i32, align 4
  store ptr %0, ptr %4, align 8
  store ptr %1, ptr %5, align 8
  store i32 %2, ptr %6, align 4
  %7 = load ptr, ptr %4, align 8
  %8 = getelementptr inbounds %"struct.doctest::detail::Expression_lhs", ptr %7, i32 0, i32 0
  %9 = load ptr, ptr %5, align 8
  store ptr %9, ptr %8, align 8
  %10 = getelementptr inbounds %"struct.doctest::detail::Expression_lhs", ptr %7, i32 0, i32 1
  %11 = load i32, ptr %6, align 4
  store i32 %11, ptr %10, align 8
  ret void
}

; Function Attrs: mustprogress nounwind uwtable
define linkonce_odr dso_local void @_ZN7doctest6detail6ResultD2Ev(ptr noundef nonnull align 8 dereferenceable(32) %0) unnamed_addr #1 comdat align 2 {
  %2 = alloca ptr, align 8
  store ptr %0, ptr %2, align 8
  %3 = load ptr, ptr %2, align 8
  %4 = getelementptr inbounds %"struct.doctest::detail::Result", ptr %3, i32 0, i32 1
  call void @_ZN7doctest6StringD1Ev(ptr noundef nonnull align 8 dereferenceable(24) %4) #13
  ret void
}

; Function Attrs: mustprogress uwtable
define linkonce_odr dso_local { ptr, i32 } @_ZN7doctest6detail20ExpressionDecomposerlsIRmEENS0_14Expression_lhsIT_EEOS5_(ptr noundef nonnull align 4 dereferenceable(4) %0, ptr noundef nonnull align 8 dereferenceable(8) %1) #4 comdat align 2 {
  %3 = alloca %"struct.doctest::detail::Expression_lhs", align 8
  %4 = alloca ptr, align 8
  %5 = alloca ptr, align 8
  store ptr %0, ptr %4, align 8
  store ptr %1, ptr %5, align 8
  %6 = load ptr, ptr %4, align 8
  %7 = load ptr, ptr %5, align 8
  %8 = getelementptr inbounds %"struct.doctest::detail::ExpressionDecomposer", ptr %6, i32 0, i32 0
  %9 = load i32, ptr %8, align 4
  call void @_ZN7doctest6detail14Expression_lhsIRmEC2ES2_NS_10assertType4EnumE(ptr noundef nonnull align 8 dereferenceable(12) %3, ptr noundef nonnull align 8 dereferenceable(8) %7, i32 noundef %9)
  %10 = load { ptr, i32 }, ptr %3, align 8
  ret { ptr, i32 } %10
}

; Function Attrs: mustprogress uwtable
define internal void @_ZL16getCodegenHeaderB5cxx11PKc(ptr dead_on_unwind noalias writable sret(%"class.std::__cxx11::basic_string") align 8 %0, ptr noundef %1) #4 personality ptr @__gxx_personality_v0 {
  %3 = alloca ptr, align 8
  %4 = alloca ptr, align 8
  %5 = alloca %"class.std::__cxx11::basic_string", align 8
  %6 = alloca i64, align 8
  %7 = alloca %"struct.doctest::detail::ResultBuilder", align 8
  %8 = alloca %"class.doctest::String", align 8
  %9 = alloca ptr, align 8
  %10 = alloca i32, align 4
  %11 = alloca %"struct.doctest::detail::Result", align 8
  %12 = alloca %"struct.doctest::detail::Expression_lhs", align 8
  %13 = alloca %"struct.doctest::detail::ExpressionDecomposer", align 4
  store ptr %0, ptr %3, align 8
  store ptr %1, ptr %4, align 8
  %14 = load ptr, ptr %4, align 8
  call void @_ZL18getCodegenAssemblyB5cxx11PKcbi(ptr dead_on_unwind writable sret(%"class.std::__cxx11::basic_string") align 8 %5, ptr noundef %14, i1 noundef zeroext true, i32 noundef 2)
  %15 = call noundef i64 @_ZNKSt7__cxx1112basic_stringIcSt11char_traitsIcESaIcEE4findEPKcm(ptr noundef nonnull align 8 dereferenceable(32) %5, ptr noundef @.str.264, i64 noundef 0) #13
  store i64 %15, ptr %6, align 8
  %16 = load i64, ptr %6, align 8
  %17 = icmp eq i64 %16, -1
  br i1 %17, label %18, label %20

18:                                               ; preds = %2
  %19 = call noundef i64 @_ZNKSt7__cxx1112basic_stringIcSt11char_traitsIcESaIcEE4findEPKcm(ptr noundef nonnull align 8 dereferenceable(32) %5, ptr noundef @.str.265, i64 noundef 0) #13
  store i64 %19, ptr %6, align 8
  br label %20

20:                                               ; preds = %18, %2
  br label %21

21:                                               ; preds = %20
  invoke void @_ZN7doctest6StringC1EPKc(ptr noundef nonnull align 8 dereferenceable(24) %8, ptr noundef @.str)
          to label %22 unwind label %33

22:                                               ; preds = %21
  invoke void @_ZN7doctest6detail13ResultBuilderC1ENS_10assertType4EnumEPKciS5_S5_RKNS_6StringE(ptr noundef nonnull align 8 dereferenceable(144) %7, i32 noundef 12, ptr noundef @.str.56, i32 noundef 126, ptr noundef @.str.266, ptr noundef @.str, ptr noundef nonnull align 8 dereferenceable(24) %8)
          to label %23 unwind label %37

23:                                               ; preds = %22
  call void @_ZN7doctest6StringD1Ev(ptr noundef nonnull align 8 dereferenceable(24) %8) #13
  invoke void @_ZN7doctest6detail20ExpressionDecomposerC1ENS_10assertType4EnumE(ptr noundef nonnull align 4 dereferenceable(4) %13, i32 noundef 12)
          to label %24 unwind label %41

24:                                               ; preds = %23
  %25 = invoke { ptr, i32 } @_ZN7doctest6detail20ExpressionDecomposerlsIRmEENS0_14Expression_lhsIT_EEOS5_(ptr noundef nonnull align 4 dereferenceable(4) %13, ptr noundef nonnull align 8 dereferenceable(8) %6)
          to label %26 unwind label %41

26:                                               ; preds = %24
  %27 = getelementptr inbounds { ptr, i32 }, ptr %12, i32 0, i32 0
  %28 = extractvalue { ptr, i32 } %25, 0
  store ptr %28, ptr %27, align 8
  %29 = getelementptr inbounds { ptr, i32 }, ptr %12, i32 0, i32 1
  %30 = extractvalue { ptr, i32 } %25, 1
  store i32 %30, ptr %29, align 8
  invoke void @_ZN7doctest6detail14Expression_lhsIRmEneIRKmEEDTcmcvvneclL_ZNS0_7declvalIS2_EEOT_vEEclsr7doctest6detailE7declvalIS8_EEtlNS0_6ResultEEES9_(ptr dead_on_unwind writable sret(%"struct.doctest::detail::Result") align 8 %11, ptr noundef nonnull align 8 dereferenceable(12) %12, ptr noundef nonnull align 8 dereferenceable(8) @_ZNSt7__cxx1112basic_stringIcSt11char_traitsIcESaIcEE4nposE)
          to label %31 unwind label %41

31:                                               ; preds = %26
  invoke void @_ZN7doctest6detail13ResultBuilder9setResultERKNS0_6ResultE(ptr noundef nonnull align 8 dereferenceable(144) %7, ptr noundef nonnull align 8 dereferenceable(32) %11)
          to label %32 unwind label %45

32:                                               ; preds = %31
  call void @_ZN7doctest6detail6ResultD2Ev(ptr noundef nonnull align 8 dereferenceable(32) %11) #13
  br label %54

33:                                               ; preds = %70, %21
  %34 = landingpad { ptr, i32 }
          cleanup
  %35 = extractvalue { ptr, i32 } %34, 0
  store ptr %35, ptr %9, align 8
  %36 = extractvalue { ptr, i32 } %34, 1
  store i32 %36, ptr %10, align 4
  br label %74

37:                                               ; preds = %22
  %38 = landingpad { ptr, i32 }
          cleanup
  %39 = extractvalue { ptr, i32 } %38, 0
  store ptr %39, ptr %9, align 8
  %40 = extractvalue { ptr, i32 } %38, 1
  store i32 %40, ptr %10, align 4
  call void @_ZN7doctest6StringD1Ev(ptr noundef nonnull align 8 dereferenceable(24) %8) #13
  br label %74

41:                                               ; preds = %26, %24, %23
  %42 = landingpad { ptr, i32 }
          catch ptr null
  %43 = extractvalue { ptr, i32 } %42, 0
  store ptr %43, ptr %9, align 8
  %44 = extractvalue { ptr, i32 } %42, 1
  store i32 %44, ptr %10, align 4
  br label %49

45:                                               ; preds = %31
  %46 = landingpad { ptr, i32 }
          catch ptr null
  %47 = extractvalue { ptr, i32 } %46, 0
  store ptr %47, ptr %9, align 8
  %48 = extractvalue { ptr, i32 } %46, 1
  store i32 %48, ptr %10, align 4
  call void @_ZN7doctest6detail6ResultD2Ev(ptr noundef nonnull align 8 dereferenceable(32) %11) #13
  br label %49

49:                                               ; preds = %45, %41
  %50 = load ptr, ptr %9, align 8
  %51 = call ptr @__cxa_begin_catch(ptr %50) #13
  invoke void @_ZN7doctest6detail13ResultBuilder18translateExceptionEv(ptr noundef nonnull align 8 dereferenceable(144) %7)
          to label %52 unwind label %58

52:                                               ; preds = %49
  invoke void @__cxa_end_catch()
          to label %53 unwind label %62

53:                                               ; preds = %52
  br label %54

54:                                               ; preds = %53, %32
  %55 = invoke noundef zeroext i1 @_ZN7doctest6detail13ResultBuilder3logEv(ptr noundef nonnull align 8 dereferenceable(144) %7)
          to label %56 unwind label %62

56:                                               ; preds = %54
  br i1 %55, label %57, label %67

57:                                               ; preds = %56
  call void asm sideeffect "int $$3\0A", "~{dirflag},~{fpsr},~{flags}"() #13, !srcloc !67
  br label %67

58:                                               ; preds = %49
  %59 = landingpad { ptr, i32 }
          cleanup
  %60 = extractvalue { ptr, i32 } %59, 0
  store ptr %60, ptr %9, align 8
  %61 = extractvalue { ptr, i32 } %59, 1
  store i32 %61, ptr %10, align 4
  invoke void @__cxa_end_catch()
          to label %66 unwind label %80

62:                                               ; preds = %67, %54, %52
  %63 = landingpad { ptr, i32 }
          cleanup
  %64 = extractvalue { ptr, i32 } %63, 0
  store ptr %64, ptr %9, align 8
  %65 = extractvalue { ptr, i32 } %63, 1
  store i32 %65, ptr %10, align 4
  br label %73

66:                                               ; preds = %58
  br label %73

67:                                               ; preds = %57, %56
  invoke void @_ZNK7doctest6detail13ResultBuilder5reactEv(ptr noundef nonnull align 8 dereferenceable(144) %7)
          to label %68 unwind label %62

68:                                               ; preds = %67
  call void @_ZN7doctest6detail13ResultBuilderD2Ev(ptr noundef nonnull align 8 dereferenceable(144) %7) #13
  br label %69

69:                                               ; preds = %68
  br label %70

70:                                               ; preds = %69
  %71 = load i64, ptr %6, align 8
  invoke void @_ZNKSt7__cxx1112basic_stringIcSt11char_traitsIcESaIcEE6substrEmm(ptr dead_on_unwind writable sret(%"class.std::__cxx11::basic_string") align 8 %0, ptr noundef nonnull align 8 dereferenceable(32) %5, i64 noundef 0, i64 noundef %71)
          to label %72 unwind label %33

72:                                               ; preds = %70
  call void @_ZNSt7__cxx1112basic_stringIcSt11char_traitsIcESaIcEED1Ev(ptr noundef nonnull align 8 dereferenceable(32) %5) #13
  ret void

73:                                               ; preds = %66, %62
  call void @_ZN7doctest6detail13ResultBuilderD2Ev(ptr noundef nonnull align 8 dereferenceable(144) %7) #13
  br label %74

74:                                               ; preds = %73, %37, %33
  call void @_ZNSt7__cxx1112basic_stringIcSt11char_traitsIcESaIcEED1Ev(ptr noundef nonnull align 8 dereferenceable(32) %5) #13
  br label %75

75:                                               ; preds = %74
  %76 = load ptr, ptr %9, align 8
  %77 = load i32, ptr %10, align 4
  %78 = insertvalue { ptr, i32 } poison, ptr %76, 0
  %79 = insertvalue { ptr, i32 } %78, i32 %77, 1
  resume { ptr, i32 } %79

80:                                               ; preds = %58
  %81 = landingpad { ptr, i32 }
          catch ptr null
  %82 = extractvalue { ptr, i32 } %81, 0
  call void @__clang_call_terminate(ptr %82) #14
  unreachable
}