; Function Attrs: mustprogress uwtable
define internal fastcc void @_ZL16getCodegenHeaderB5cxx11PKc(ptr dead_on_unwind noalias writable align 8 %0, ptr noundef %1) unnamed_addr #3 personality ptr @__gxx_personality_v0 {
  %3 = alloca %"class.std::__cxx11::basic_string", align 8
  %4 = alloca i64, align 8
  %5 = alloca %"struct.doctest::detail::ResultBuilder", align 8
  %6 = alloca %"class.doctest::String", align 8
  %7 = alloca %"struct.doctest::detail::Result", align 8
  %8 = alloca %"struct.doctest::detail::Expression_lhs", align 8
  %9 = alloca %"struct.doctest::detail::ExpressionDecomposer", align 4
  call fastcc void @_ZL18getCodegenAssemblyB5cxx11PKcbi(ptr dead_on_unwind noalias nonnull writable align 8 %3, ptr noundef %1, i1 noundef zeroext true, i32 noundef 2)
  %10 = call noundef i64 @_ZNKSt7__cxx1112basic_stringIcSt11char_traitsIcESaIcEE4findEPKcm(ptr noundef nonnull align 8 dereferenceable(32) %3, ptr noundef nonnull @.str.264, i64 noundef 0) #16
  store i64 %10, ptr %4, align 8
  %11 = icmp eq i64 %10, -1
  br i1 %11, label %12, label %14

12:                                               ; preds = %2
  %13 = call noundef i64 @_ZNKSt7__cxx1112basic_stringIcSt11char_traitsIcESaIcEE4findEPKcm(ptr noundef nonnull align 8 dereferenceable(32) %3, ptr noundef nonnull @.str.265, i64 noundef 0) #16
  store i64 %13, ptr %4, align 8
  br label %14

14:                                               ; preds = %2, %12
  invoke void @_ZN7doctest6StringC1EPKc(ptr noundef nonnull align 8 dereferenceable(24) %6, ptr noundef nonnull @.str)
          to label %15 unwind label %23

15:                                               ; preds = %14
  invoke void @_ZN7doctest6detail13ResultBuilderC1ENS_10assertType4EnumEPKciS5_S5_RKNS_6StringE(ptr noundef nonnull align 8 dereferenceable(144) %5, i32 noundef 12, ptr noundef nonnull @.str.56, i32 noundef 126, ptr noundef nonnull @.str.266, ptr noundef nonnull @.str, ptr noundef nonnull align 8 dereferenceable(24) %6)
          to label %16 unwind label %25

16:                                               ; preds = %15
  call void @_ZN7doctest6StringD1Ev(ptr noundef nonnull align 8 dereferenceable(24) %6) #16
  invoke void @_ZN7doctest6detail20ExpressionDecomposerC1ENS_10assertType4EnumE(ptr noundef nonnull align 4 dereferenceable(4) %9, i32 noundef 12)
          to label %17 unwind label %27

17:                                               ; preds = %16
  %18 = load i32, ptr %9, align 4
  store ptr %4, ptr %8, align 8
  %19 = getelementptr inbounds i8, ptr %8, i64 8
  store i32 %18, ptr %19, align 8
  invoke void @_ZN7doctest6detail14Expression_lhsIRmEneIRKmEEDTcmcvvneclL_ZNS0_7declvalIS2_EEOT_vEEclsr7doctest6detailE7declvalIS8_EEtlNS0_6ResultEEES9_(ptr dead_on_unwind nonnull writable sret(%"struct.doctest::detail::Result") align 8 %7, ptr noundef nonnull align 8 dereferenceable(12) %8, ptr noundef nonnull align 8 dereferenceable(8) @_ZNSt7__cxx1112basic_stringIcSt11char_traitsIcESaIcEE4nposE)
          to label %20 unwind label %27

20:                                               ; preds = %17
  invoke void @_ZN7doctest6detail13ResultBuilder9setResultERKNS0_6ResultE(ptr noundef nonnull align 8 dereferenceable(144) %5, ptr noundef nonnull align 8 dereferenceable(32) %7)
          to label %21 unwind label %29

21:                                               ; preds = %20
  %22 = getelementptr inbounds i8, ptr %7, i64 8
  call void @_ZN7doctest6StringD1Ev(ptr noundef nonnull align 8 dereferenceable(24) %22) #16
  br label %35

23:                                               ; preds = %44, %14
  %24 = landingpad { ptr, i32 }
          cleanup
  br label %51

25:                                               ; preds = %15
  %26 = landingpad { ptr, i32 }
          cleanup
  call void @_ZN7doctest6StringD1Ev(ptr noundef nonnull align 8 dereferenceable(24) %6) #16
  br label %51

27:                                               ; preds = %17, %16
  %28 = landingpad { ptr, i32 }
          catch ptr null
  br label %32

29:                                               ; preds = %20
  %30 = landingpad { ptr, i32 }
          catch ptr null
  %31 = getelementptr inbounds i8, ptr %7, i64 8
  call void @_ZN7doctest6StringD1Ev(ptr noundef nonnull align 8 dereferenceable(24) %31) #16
  br label %32

32:                                               ; preds = %29, %27
  %.pn = phi { ptr, i32 } [ %30, %29 ], [ %28, %27 ]
  %.03 = extractvalue { ptr, i32 } %.pn, 0
  %33 = call ptr @__cxa_begin_catch(ptr %.03) #16
  invoke void @_ZN7doctest6detail13ResultBuilder18translateExceptionEv(ptr noundef nonnull align 8 dereferenceable(144) %5)
          to label %34 unwind label %39

34:                                               ; preds = %32
  invoke void @__cxa_end_catch()
          to label %35 unwind label %41

35:                                               ; preds = %34, %21
  %36 = invoke noundef zeroext i1 @_ZN7doctest6detail13ResultBuilder3logEv(ptr noundef nonnull align 8 dereferenceable(144) %5)
          to label %37 unwind label %41

37:                                               ; preds = %35
  br i1 %36, label %38, label %43

38:                                               ; preds = %37
  call void asm sideeffect "int $$3\0A", "~{dirflag},~{fpsr},~{flags}"() #16, !srcloc !461
  br label %43

39:                                               ; preds = %32
  %40 = landingpad { ptr, i32 }
          cleanup
  invoke void @__cxa_end_catch()
          to label %50 unwind label %52

41:                                               ; preds = %43, %35, %34
  %42 = landingpad { ptr, i32 }
          cleanup
  br label %50

43:                                               ; preds = %38, %37
  invoke void @_ZNK7doctest6detail13ResultBuilder5reactEv(ptr noundef nonnull align 8 dereferenceable(144) %5)
          to label %44 unwind label %41

44:                                               ; preds = %43
  %45 = getelementptr inbounds i8, ptr %5, i64 112
  call void @_ZN7doctest6StringD1Ev(ptr noundef nonnull align 8 dereferenceable(24) %45) #16
  %46 = getelementptr inbounds i8, ptr %5, i64 72
  call void @_ZN7doctest6StringD1Ev(ptr noundef nonnull align 8 dereferenceable(24) %46) #16
  %47 = getelementptr inbounds i8, ptr %5, i64 48
  call void @_ZN7doctest6StringD1Ev(ptr noundef nonnull align 8 dereferenceable(24) %47) #16
  %48 = load i64, ptr %4, align 8
  invoke void @_ZNKSt7__cxx1112basic_stringIcSt11char_traitsIcESaIcEE6substrEmm(ptr dead_on_unwind writable sret(%"class.std::__cxx11::basic_string") align 8 %0, ptr noundef nonnull align 8 dereferenceable(32) %3, i64 noundef 0, i64 noundef %48)
          to label %49 unwind label %23

49:                                               ; preds = %44
  call void @_ZNSt7__cxx1112basic_stringIcSt11char_traitsIcESaIcEED1Ev(ptr noundef nonnull align 8 dereferenceable(32) %3) #16
  ret void

50:                                               ; preds = %39, %41
  %.pn5 = phi { ptr, i32 } [ %42, %41 ], [ %40, %39 ]
  call void @_ZN7doctest6detail13ResultBuilderD2Ev(ptr noundef nonnull align 8 dereferenceable(144) %5) #16
  br label %51

51:                                               ; preds = %50, %25, %23
  %.pn7 = phi { ptr, i32 } [ %24, %23 ], [ %.pn5, %50 ], [ %26, %25 ]
  call void @_ZNSt7__cxx1112basic_stringIcSt11char_traitsIcESaIcEED1Ev(ptr noundef nonnull align 8 dereferenceable(32) %3) #16
  resume { ptr, i32 } %.pn7

52:                                               ; preds = %39
  %53 = landingpad { ptr, i32 }
          catch ptr null
  %54 = extractvalue { ptr, i32 } %53, 0
  call void @__clang_call_terminate(ptr %54) #17
  unreachable
}